target datalayout = "e-m:e-p270:32:32-p271:32:32-p272:64:64-i64:64-i128:128-f80:128-n8:16:32:64-S128"
target triple = "x86_64-pc-linux-gnu"

%struct._wmem_strbuf_t = type { ptr, ptr, i64, i64 }

; Function Attrs: inlinehint null_pointer_is_valid sspstrong uwtable
define internal void @wmem_strbuf_grow(ptr noundef %0, i64 noundef %1) #5 {
  %3 = alloca ptr, align 8
  %4 = alloca i64, align 8
  %5 = alloca i64, align 8
  %6 = alloca i64, align 8
  %7 = alloca i32, align 4
  store ptr %0, ptr %3, align 8
  store i64 %1, ptr %4, align 8
  call void @llvm.lifetime.start.p0(i64 8, ptr %5) #15
  call void @llvm.lifetime.start.p0(i64 8, ptr %6) #15
  %8 = load ptr, ptr %3, align 8
  %9 = getelementptr inbounds nuw %struct._wmem_strbuf_t, ptr %8, i32 0, i32 3
  %10 = load i64, ptr %9, align 8
  %11 = load ptr, ptr %3, align 8
  %12 = getelementptr inbounds nuw %struct._wmem_strbuf_t, ptr %11, i32 0, i32 2
  %13 = load i64, ptr %12, align 8
  %14 = sub i64 %10, %13
  %15 = sub i64 %14, 1
  %16 = load i64, ptr %4, align 8
  %17 = icmp uge i64 %15, %16
  br i1 %17, label %18, label %19

18:                                               ; preds = %2
  store i32 1, ptr %7, align 4
  br label %57

19:                                               ; preds = %2
  %20 = load ptr, ptr %3, align 8
  %21 = getelementptr inbounds nuw %struct._wmem_strbuf_t, ptr %20, i32 0, i32 3
  %22 = load i64, ptr %21, align 8
  store i64 %22, ptr %5, align 8
  %23 = load ptr, ptr %3, align 8
  %24 = getelementptr inbounds nuw %struct._wmem_strbuf_t, ptr %23, i32 0, i32 2
  %25 = load i64, ptr %24, align 8
  %26 = load i64, ptr %4, align 8
  %27 = add i64 %25, %26
  store i64 %27, ptr %6, align 8
  br label %28

28:                                               ; preds = %33, %19
  %29 = load i64, ptr %5, align 8
  %30 = load i64, ptr %6, align 8
  %31 = add i64 %30, 1
  %32 = icmp ult i64 %29, %31
  br i1 %32, label %33, label %36

33:                                               ; preds = %28
  %34 = load i64, ptr %5, align 8
  %35 = mul i64 %34, 2
  store i64 %35, ptr %5, align 8
  br label %28, !llvm.loop !8

36:                                               ; preds = %28
  %37 = load i64, ptr %5, align 8
  %38 = load ptr, ptr %3, align 8
  %39 = getelementptr inbounds nuw %struct._wmem_strbuf_t, ptr %38, i32 0, i32 3
  %40 = load i64, ptr %39, align 8
  %41 = icmp eq i64 %37, %40
  br i1 %41, label %42, label %43

42:                                               ; preds = %36
  store i32 1, ptr %7, align 4
  br label %57

43:                                               ; preds = %36
  %44 = load ptr, ptr %3, align 8
  %45 = getelementptr inbounds nuw %struct._wmem_strbuf_t, ptr %44, i32 0, i32 0
  %46 = load ptr, ptr %45, align 8
  %47 = load ptr, ptr %3, align 8
  %48 = getelementptr inbounds nuw %struct._wmem_strbuf_t, ptr %47, i32 0, i32 1
  %49 = load ptr, ptr %48, align 8
  %50 = load i64, ptr %5, align 8
  %51 = call ptr @wmem_realloc(ptr noundef %46, ptr noundef %49, i64 noundef %50) #18
  %52 = load ptr, ptr %3, align 8
  %53 = getelementptr inbounds nuw %struct._wmem_strbuf_t, ptr %52, i32 0, i32 1
  store ptr %51, ptr %53, align 8
  %54 = load i64, ptr %5, align 8
  %55 = load ptr, ptr %3, align 8
  %56 = getelementptr inbounds nuw %struct._wmem_strbuf_t, ptr %55, i32 0, i32 3
  store i64 %54, ptr %56, align 8
  store i32 0, ptr %7, align 4
  br label %57

57:                                               ; preds = %43, %42, %18
  call void @llvm.lifetime.end.p0(i64 8, ptr %6) #15
  call void @llvm.lifetime.end.p0(i64 8, ptr %5) #15
  %58 = load i32, ptr %7, align 4
  switch i32 %58, label %60 [
    i32 0, label %59
    i32 1, label %59
  ]

59:                                               ; preds = %57, %57
  ret void

60:                                               ; preds = %57
  unreachable
}

; Function Attrs: null_pointer_is_valid sspstrong uwtable
define void @wmem_strbuf_append_c_count(ptr noundef %0, i8 noundef signext %1, i64 noundef %2) #0 {
  %4 = alloca ptr, align 8
  %5 = alloca i8, align 1
  %6 = alloca i64, align 8
  store ptr %0, ptr %4, align 8
  store i8 %1, ptr %5, align 1
  store i64 %2, ptr %6, align 8
  %7 = load ptr, ptr %4, align 8
  %8 = load i64, ptr %6, align 8
  call void @wmem_strbuf_grow(ptr noundef %7, i64 noundef %8)
  br label %9

9:                                                ; preds = %13, %3
  %10 = load i64, ptr %6, align 8
  %11 = add i64 %10, -1
  store i64 %11, ptr %6, align 8
  %12 = icmp ugt i64 %10, 0
  br i1 %12, label %13, label %23

13:                                               ; preds = %9
  %14 = load i8, ptr %5, align 1
  %15 = load ptr, ptr %4, align 8
  %16 = getelementptr inbounds nuw %struct._wmem_strbuf_t, ptr %15, i32 0, i32 1
  %17 = load ptr, ptr %16, align 8
  %18 = load ptr, ptr %4, align 8
  %19 = getelementptr inbounds nuw %struct._wmem_strbuf_t, ptr %18, i32 0, i32 2
  %20 = load i64, ptr %19, align 8
  %21 = add i64 %20, 1
  store i64 %21, ptr %19, align 8
  %22 = getelementptr i8, ptr %17, i64 %20
  store i8 %14, ptr %22, align 1
  br label %9, !llvm.loop !9

23:                                               ; preds = %9
  %24 = load ptr, ptr %4, align 8
  %25 = getelementptr inbounds nuw %struct._wmem_strbuf_t, ptr %24, i32 0, i32 1
  %26 = load ptr, ptr %25, align 8
  %27 = load ptr, ptr %4, align 8
  %28 = getelementptr inbounds nuw %struct._wmem_strbuf_t, ptr %27, i32 0, i32 2
  %29 = load i64, ptr %28, align 8
  %30 = getelementptr i8, ptr %26, i64 %29
  store i8 0, ptr %30, align 1
  ret void
}