; Function Attrs: null_pointer_is_valid sspstrong uwtable
define void @wmem_strbuf_append_c_count(ptr noundef captures(none) %0, i8 noundef signext %1, i64 noundef %2) local_unnamed_addr #0 {
  %4 = getelementptr inbounds nuw i8, ptr %0, i64 24
  %5 = load i64, ptr %4, align 8
  %6 = getelementptr inbounds nuw i8, ptr %0, i64 16
  %7 = load i64, ptr %6, align 8
  %8 = xor i64 %7, -1
  %9 = add i64 %5, %8
  %.not.i = icmp ult i64 %9, %2
  br i1 %.not.i, label %10, label %wmem_strbuf_grow.exit

10:                                               ; preds = %3
  %11 = add i64 %2, 1
  %12 = add i64 %11, %7
  br label %13

13:                                               ; preds = %13, %10
  %.0.i = phi i64 [ %5, %10 ], [ %15, %13 ]
  %14 = icmp ult i64 %.0.i, %12
  %15 = shl i64 %.0.i, 1
  br i1 %14, label %13, label %16, !llvm.loop !20

16:                                               ; preds = %13
  %17 = icmp eq i64 %.0.i, %5
  br i1 %17, label %wmem_strbuf_grow.exit, label %18

18:                                               ; preds = %16
  %19 = load ptr, ptr %0, align 8
  %20 = getelementptr inbounds nuw i8, ptr %0, i64 8
  %21 = load ptr, ptr %20, align 8
  %22 = tail call ptr @wmem_realloc(ptr noundef %19, ptr noundef %21, i64 noundef %.0.i) #19
  store ptr %22, ptr %20, align 8
  store i64 %.0.i, ptr %4, align 8
  br label %wmem_strbuf_grow.exit

wmem_strbuf_grow.exit:                            ; preds = %3, %16, %18
  %.not7 = icmp eq i64 %2, 0
  br i1 %.not7, label %._crit_edge, label %.lr.ph

.lr.ph:                                           ; preds = %wmem_strbuf_grow.exit
  %23 = getelementptr inbounds nuw i8, ptr %0, i64 8
  br label %24

24:                                               ; preds = %.lr.ph, %24
  %.08 = phi i64 [ %2, %.lr.ph ], [ %25, %24 ]
  %25 = add i64 %.08, -1
  %26 = load ptr, ptr %23, align 8
  %27 = load i64, ptr %6, align 8
  %28 = add i64 %27, 1
  store i64 %28, ptr %6, align 8
  %29 = getelementptr i8, ptr %26, i64 %27
  store i8 %1, ptr %29, align 1
  %.not = icmp eq i64 %25, 0
  br i1 %.not, label %._crit_edge, label %24, !llvm.loop !21

._crit_edge:                                      ; preds = %24, %wmem_strbuf_grow.exit
  %30 = getelementptr inbounds nuw i8, ptr %0, i64 8
  %31 = load ptr, ptr %30, align 8
  %32 = load i64, ptr %6, align 8
  %33 = getelementptr i8, ptr %31, i64 %32
  store i8 0, ptr %33, align 1
  ret void
}